; Function Attrs: mustprogress uwtable
define void @_ZNK6icu_7517RuleBasedCollator36internalGetContractionsAndExpansionsEPNS_10UnicodeSetES2_aR10UErrorCode(ptr nocapture noundef nonnull readonly align 8 dereferenceable(272) %this, ptr noundef %contractions, ptr noundef %expansions, i8 noundef signext %addPrefixes, ptr noundef nonnull align 4 dereferenceable(4) %errorCode) local_unnamed_addr #1 align 2 personality ptr @__gxx_personality_v0 {
entry:
  %ref.tmp = alloca %"class.icu_75::ContractionsAndExpansions", align 8
  %0 = load i32, ptr %errorCode, align 4
  %cmp.i = icmp slt i32 %0, 1
  br i1 %cmp.i, label %if.end, label %return

if.end:                                           ; preds = %entry
  %cmp.not = icmp eq ptr %contractions, null
  br i1 %cmp.not, label %if.end4, label %if.then2

if.then2:                                         ; preds = %if.end
  %call3 = tail call noundef nonnull align 8 dereferenceable(200) ptr @_ZN6icu_7510UnicodeSet5clearEv(ptr noundef nonnull align 8 dereferenceable(200) %contractions)
  br label %if.end4

if.end4:                                          ; preds = %if.then2, %if.end
  %cmp5.not = icmp eq ptr %expansions, null
  br i1 %cmp5.not, label %if.end4.split, label %if.then6

if.end4.split:                                    ; preds = %if.end4
  store ptr null, ptr %ref.tmp, align 8
  %contractions.i = getelementptr inbounds i8, ptr %ref.tmp, i64 8
  store ptr %contractions, ptr %contractions.i, align 8
  %expansions.i = getelementptr inbounds i8, ptr %ref.tmp, i64 16
  %addPrefixes.i = getelementptr inbounds i8, ptr %ref.tmp, i64 32
  call void @llvm.memset.p0.i64(ptr noundef nonnull align 8 dereferenceable(16) %expansions.i, i8 0, i64 16, i1 false)
  store i8 %addPrefixes, ptr %addPrefixes.i, align 8
  %checkTailored.i = getelementptr inbounds i8, ptr %ref.tmp, i64 33
  store i8 0, ptr %checkTailored.i, align 1
  %tailored.i = getelementptr inbounds i8, ptr %ref.tmp, i64 40
  call void @_ZN6icu_7510UnicodeSetC1Ev(ptr noundef nonnull align 8 dereferenceable(200) %tailored.i)
  %ranges.i = getelementptr inbounds i8, ptr %ref.tmp, i64 240
  invoke void @_ZN6icu_7510UnicodeSetC1Ev(ptr noundef nonnull align 8 dereferenceable(200) %ranges.i)
          to label %if.end8 unwind label %lpad.i

common.resume:                                    ; preds = %lpad, %lpad.i13, %lpad.i
  %common.resume.op = phi { ptr, i32 } [ %1, %lpad.i ], [ %2, %lpad.i13 ], [ %4, %lpad ]
  resume { ptr, i32 } %common.resume.op

lpad.i:                                           ; preds = %if.end4.split
  %1 = landingpad { ptr, i32 }
          cleanup
  call void @_ZN6icu_7510UnicodeSetD1Ev(ptr noundef nonnull align 8 dereferenceable(200) %tailored.i) #17
  br label %common.resume

if.then6:                                         ; preds = %if.end4
  %call7 = tail call noundef nonnull align 8 dereferenceable(200) ptr @_ZN6icu_7510UnicodeSet5clearEv(ptr noundef nonnull align 8 dereferenceable(200) %expansions)
  store ptr null, ptr %ref.tmp, align 8
  %contractions.i6 = getelementptr inbounds i8, ptr %ref.tmp, i64 8
  store ptr %contractions, ptr %contractions.i6, align 8
  %expansions.i7 = getelementptr inbounds i8, ptr %ref.tmp, i64 16
  store ptr %expansions, ptr %expansions.i7, align 8
  %sink.i8 = getelementptr inbounds i8, ptr %ref.tmp, i64 24
  store ptr null, ptr %sink.i8, align 8
  %addPrefixes.i9 = getelementptr inbounds i8, ptr %ref.tmp, i64 32
  store i8 %addPrefixes, ptr %addPrefixes.i9, align 8
  %checkTailored.i10 = getelementptr inbounds i8, ptr %ref.tmp, i64 33
  store i8 0, ptr %checkTailored.i10, align 1
  %tailored.i11 = getelementptr inbounds i8, ptr %ref.tmp, i64 40
  call void @_ZN6icu_7510UnicodeSetC1Ev(ptr noundef nonnull align 8 dereferenceable(200) %tailored.i11)
  %ranges.i12 = getelementptr inbounds i8, ptr %ref.tmp, i64 240
  invoke void @_ZN6icu_7510UnicodeSetC1Ev(ptr noundef nonnull align 8 dereferenceable(200) %ranges.i12)
          to label %if.end8 unwind label %lpad.i13

lpad.i13:                                         ; preds = %if.then6
  %2 = landingpad { ptr, i32 }
          cleanup
  call void @_ZN6icu_7510UnicodeSetD1Ev(ptr noundef nonnull align 8 dereferenceable(200) %tailored.i11) #17
  br label %common.resume

if.end8:                                          ; preds = %if.then6, %if.end4.split
  %unreversedPrefix.i = getelementptr inbounds i8, ptr %ref.tmp, i64 440
  store ptr getelementptr inbounds ({ [13 x ptr] }, ptr @_ZTVN6icu_7513UnicodeStringE, i64 0, i32 0, i64 2), ptr %unreversedPrefix.i, align 8
  %fUnion2.i.i = getelementptr inbounds i8, ptr %ref.tmp, i64 448
  store i16 2, ptr %fUnion2.i.i, align 8
  %suffix.i = getelementptr inbounds i8, ptr %ref.tmp, i64 504
  store ptr null, ptr %suffix.i, align 8
  %errorCode.i = getelementptr inbounds i8, ptr %ref.tmp, i64 760
  store i32 0, ptr %errorCode.i, align 8
  %data = getelementptr inbounds i8, ptr %this, i64 8
  %3 = load ptr, ptr %data, align 8
  invoke void @_ZN6icu_7525ContractionsAndExpansions7forDataEPKNS_13CollationDataER10UErrorCode(ptr noundef nonnull align 8 dereferenceable(764) %ref.tmp, ptr noundef %3, ptr noundef nonnull align 4 dereferenceable(4) %errorCode)
          to label %invoke.cont unwind label %lpad

invoke.cont:                                      ; preds = %if.end8
  %unreversedPrefix.i19 = getelementptr inbounds i8, ptr %ref.tmp, i64 440
  call void @_ZN6icu_7513UnicodeStringD1Ev(ptr noundef nonnull align 8 dereferenceable(64) %unreversedPrefix.i19) #17
  %ranges.i20 = getelementptr inbounds i8, ptr %ref.tmp, i64 240
  call void @_ZN6icu_7510UnicodeSetD1Ev(ptr noundef nonnull align 8 dereferenceable(200) %ranges.i20) #17
  %tailored.i21 = getelementptr inbounds i8, ptr %ref.tmp, i64 40
  call void @_ZN6icu_7510UnicodeSetD1Ev(ptr noundef nonnull align 8 dereferenceable(200) %tailored.i21) #17
  br label %return

return:                                           ; preds = %entry, %invoke.cont
  ret void

lpad:                                             ; preds = %if.end8
  %4 = landingpad { ptr, i32 }
          cleanup
  call void @_ZN6icu_7525ContractionsAndExpansionsD2Ev(ptr noundef nonnull align 8 dereferenceable(764) %ref.tmp) #17
  br label %common.resume
}